; Function Attrs: mustprogress nounwind uwtable
define hidden void @_ZNK6hermes2vm9CodeBlock17getSourceLocationEj(ptr noalias sret(%"class.hermes::OptValue.29") align 4 %agg.result, ptr noundef nonnull readonly align 8 captures(none) dereferenceable(40) %this, i32 noundef %offset) local_unnamed_addr #0 align 2 {
entry:
  %ref.tmp.i.i = alloca %"struct.std::pair.48", align 8
  %0 = load ptr, ptr %this, align 8
  %bcProvider_.i.i = getelementptr inbounds nuw i8, ptr %0, i64 80
  %1 = load ptr, ptr %bcProvider_.i.i, align 8
  %functionID_.i = getelementptr inbounds nuw i8, ptr %this, i64 24
  %2 = load i32, ptr %functionID_.i, align 8
  call void @llvm.lifetime.start.p0(i64 24, ptr nonnull %ref.tmp.i.i)
  call void @_ZNK6hermes3hbc20BCProviderFromBuffer32getExceptionTableAndDebugOffsetsEj(ptr nonnull sret(%"struct.std::pair.48") align 8 %ref.tmp.i.i, ptr noundef nonnull align 8 dereferenceable(376) %1, i32 noundef %2) #7
  %second.i.i = getelementptr inbounds nuw i8, ptr %ref.tmp.i.i, i64 16
  %3 = load ptr, ptr %second.i.i, align 8
  call void @llvm.lifetime.end.p0(i64 24, ptr nonnull %ref.tmp.i.i)
  %tobool.not.i = icmp eq ptr %3, null
  br i1 %tobool.not.i, label %if.then, label %_ZNK6hermes2vm9CodeBlock29getDebugSourceLocationsOffsetEv.exit

_ZNK6hermes2vm9CodeBlock29getDebugSourceLocationsOffsetEv.exit: ; preds = %entry
  %4 = load i32, ptr %3, align 4
  %cmp.not.i.not = icmp eq i32 %4, -1
  br i1 %cmp.not.i.not, label %if.then, label %if.end

if.then:                                          ; preds = %entry, %_ZNK6hermes2vm9CodeBlock29getDebugSourceLocationsOffsetEv.exit
  %envReg.i.i = getelementptr inbounds nuw i8, ptr %agg.result, i64 28
  call void @llvm.memset.p0.i64(ptr noundef nonnull align 4 dereferenceable(33) %agg.result, i8 0, i64 28, i1 false)
  store i32 -1, ptr %envReg.i.i, align 4
  %hasValue_.i1 = getelementptr inbounds nuw i8, ptr %agg.result, i64 32
  store i8 0, ptr %hasValue_.i1, align 4
  br label %return

if.end:                                           ; preds = %_ZNK6hermes2vm9CodeBlock29getDebugSourceLocationsOffsetEv.exit
  %5 = load ptr, ptr %this, align 8
  %bcProvider_.i = getelementptr inbounds nuw i8, ptr %5, i64 80
  %6 = load ptr, ptr %bcProvider_.i, align 8
  %debugInfo_.i = getelementptr inbounds nuw i8, ptr %6, i64 240
  %7 = load ptr, ptr %debugInfo_.i, align 8
  %tobool.not.i2 = icmp eq ptr %7, null
  br i1 %tobool.not.i2, label %if.then.i, label %_ZNK6hermes3hbc14BCProviderBase12getDebugInfoEv.exit

if.then.i:                                        ; preds = %if.end
  %vtable.i = load ptr, ptr %6, align 8
  %8 = load ptr, ptr %vtable.i, align 8
  call void %8(ptr noundef nonnull align 8 dereferenceable(280) %6) #7
  %.pre.i = load ptr, ptr %debugInfo_.i, align 8
  br label %_ZNK6hermes3hbc14BCProviderBase12getDebugInfoEv.exit

_ZNK6hermes3hbc14BCProviderBase12getDebugInfoEv.exit: ; preds = %if.end, %if.then.i
  %9 = phi ptr [ %.pre.i, %if.then.i ], [ %7, %if.end ]
  call void @_ZNK6hermes3hbc9DebugInfo21getLocationForAddressEjj(ptr sret(%"class.hermes::OptValue.29") align 4 %agg.result, ptr noundef nonnull align 8 dereferenceable(136) %9, i32 noundef %4, i32 noundef %offset) #7
  br label %return

return:                                           ; preds = %_ZNK6hermes3hbc14BCProviderBase12getDebugInfoEv.exit, %if.then
  ret void
}